target datalayout = "e-m:e-p270:32:32-p271:32:32-p272:64:64-i64:64-i128:128-f80:128-n8:16:32:64-S128"
target triple = "x86_64-pc-linux-gnu"

%struct.ethertype_data_s = type { i16, i32, ptr, i32, i32 }
%struct._packet_info = type { ptr, ptr, i32, i32, %struct.nstime_t, %struct.nstime_t, %struct.nstime_t, i8, ptr, ptr, ptr, ptr, %struct._address, %struct._address, %struct._address, %struct._address, %struct._address, %struct._address, i32, ptr, i8, [3 x i8], %struct.anon, i32, i32, i32, i32, ptr, i8, ptr, ptr, i16, i16, i32, i32, i16, i32, i32, ptr, ptr, ptr, i8, i8, i16, i16, i16, i32, i16, i16, ptr, ptr, ptr, ptr, ptr, i32, i32 }
%struct.nstime_t = type { i64, i32 }
%struct._address = type { i32, i32, ptr, ptr }
%struct.anon = type { i8, [3 x i8] }

@hf_homepna_type = internal global i32 0, align 4
@hf_homepna_length = internal global i32 0, align 4
@hf_homepna_version = internal global i32 0, align 4
@hf_homepna_data = internal global i32 0, align 4
@hf_homepna_etype = internal global i32 0, align 4
@hf_homepna_trailer = internal global i32 0, align 4
@ett_homepna = internal global i32 0, align 4
@.str.13 = private unnamed_addr constant [8 x i8] c"HomePNA\00", align 1
@proto_homepna = internal global i32 0, align 4
@ethertype_handle = internal global ptr null, align 8

; Function Attrs: null_pointer_is_valid sspstrong uwtable
define internal i32 @dissect_homepna(ptr noundef %0, ptr noundef %1, ptr noundef %2, ptr noundef %3) #0 {
  %5 = alloca i32, align 4
  %6 = alloca ptr, align 8
  %7 = alloca ptr, align 8
  %8 = alloca ptr, align 8
  %9 = alloca ptr, align 8
  %10 = alloca ptr, align 8
  %11 = alloca ptr, align 8
  %12 = alloca i32, align 4
  %13 = alloca i32, align 4
  %14 = alloca i32, align 4
  %15 = alloca i16, align 2
  %16 = alloca %struct.ethertype_data_s, align 8
  %17 = alloca i32, align 4
  store ptr %0, ptr %6, align 8
  store ptr %1, ptr %7, align 8
  store ptr %2, ptr %8, align 8
  store ptr %3, ptr %9, align 8
  call void @llvm.lifetime.start.p0(i64 8, ptr %10) #3
  call void @llvm.lifetime.start.p0(i64 8, ptr %11) #3
  call void @llvm.lifetime.start.p0(i64 4, ptr %12) #3
  store i32 0, ptr %12, align 4
  call void @llvm.lifetime.start.p0(i64 4, ptr %13) #3
  call void @llvm.lifetime.start.p0(i64 4, ptr %14) #3
  store i32 0, ptr %14, align 4
  call void @llvm.lifetime.start.p0(i64 2, ptr %15) #3
  call void @llvm.lifetime.start.p0(i64 24, ptr %16) #3
  %18 = load ptr, ptr %6, align 8
  %19 = call i32 @tvb_captured_length(ptr noundef %18)
  %20 = icmp ult i32 %19, 4
  br i1 %20, label %21, label %22

21:                                               ; preds = %4
  store i32 0, ptr %5, align 4
  store i32 1, ptr %17, align 4
  br label %132

22:                                               ; preds = %4
  %23 = load ptr, ptr %7, align 8
  %24 = getelementptr inbounds nuw %struct._packet_info, ptr %23, i32 0, i32 1
  %25 = load ptr, ptr %24, align 8
  call void @col_set_str(ptr noundef %25, i32 noundef 35, ptr noundef @.str.13)
  %26 = load ptr, ptr %7, align 8
  %27 = getelementptr inbounds nuw %struct._packet_info, ptr %26, i32 0, i32 1
  %28 = load ptr, ptr %27, align 8
  call void @col_clear(ptr noundef %28, i32 noundef 25)
  %29 = load ptr, ptr %8, align 8
  %30 = load i32, ptr @proto_homepna, align 4
  %31 = load ptr, ptr %6, align 8
  %32 = call ptr @proto_tree_add_item(ptr noundef %29, i32 noundef %30, ptr noundef %31, i32 noundef 0, i32 noundef -1, i32 noundef 0)
  store ptr %32, ptr %10, align 8
  %33 = load ptr, ptr %10, align 8
  %34 = load i32, ptr @ett_homepna, align 4
  %35 = call ptr @proto_item_add_subtree(ptr noundef %33, i32 noundef %34)
  store ptr %35, ptr %11, align 8
  %36 = load ptr, ptr %6, align 8
  %37 = load i32, ptr %12, align 4
  %38 = call zeroext i8 @tvb_get_uint8(ptr noundef %36, i32 noundef %37)
  %39 = zext i8 %38 to i32
  %40 = icmp sgt i32 %39, 127
  br i1 %40, label %41, label %42

41:                                               ; preds = %22
  store i32 1, ptr %14, align 4
  br label %42

42:                                               ; preds = %41, %22
  %43 = load i32, ptr %14, align 4
  %44 = icmp eq i32 %43, 0
  br i1 %44, label %45, label %60

45:                                               ; preds = %42
  %46 = load ptr, ptr %11, align 8
  %47 = load i32, ptr @hf_homepna_type, align 4
  %48 = load ptr, ptr %6, align 8
  %49 = load i32, ptr %12, align 4
  %50 = call ptr @proto_tree_add_item(ptr noundef %46, i32 noundef %47, ptr noundef %48, i32 noundef %49, i32 noundef 1, i32 noundef 0)
  %51 = load i32, ptr %12, align 4
  %52 = add i32 %51, 1
  store i32 %52, ptr %12, align 4
  %53 = load ptr, ptr %11, align 8
  %54 = load i32, ptr @hf_homepna_length, align 4
  %55 = load ptr, ptr %6, align 8
  %56 = load i32, ptr %12, align 4
  %57 = call ptr @proto_tree_add_item_ret_uint(ptr noundef %53, i32 noundef %54, ptr noundef %55, i32 noundef %56, i32 noundef 1, i32 noundef 0, ptr noundef %13)
  %58 = load i32, ptr %12, align 4
  %59 = add i32 %58, 1
  store i32 %59, ptr %12, align 4
  br label %75

60:                                               ; preds = %42
  %61 = load ptr, ptr %11, align 8
  %62 = load i32, ptr @hf_homepna_type, align 4
  %63 = load ptr, ptr %6, align 8
  %64 = load i32, ptr %12, align 4
  %65 = call ptr @proto_tree_add_item(ptr noundef %61, i32 noundef %62, ptr noundef %63, i32 noundef %64, i32 noundef 2, i32 noundef 0)
  %66 = load i32, ptr %12, align 4
  %67 = add i32 %66, 2
  store i32 %67, ptr %12, align 4
  %68 = load ptr, ptr %11, align 8
  %69 = load i32, ptr @hf_homepna_length, align 4
  %70 = load ptr, ptr %6, align 8
  %71 = load i32, ptr %12, align 4
  %72 = call ptr @proto_tree_add_item_ret_uint(ptr noundef %68, i32 noundef %69, ptr noundef %70, i32 noundef %71, i32 noundef 2, i32 noundef 0, ptr noundef %13)
  %73 = load i32, ptr %12, align 4
  %74 = add i32 %73, 2
  store i32 %74, ptr %12, align 4
  br label %75

75:                                               ; preds = %60, %45
  %76 = load ptr, ptr %11, align 8
  %77 = load i32, ptr @hf_homepna_version, align 4
  %78 = load ptr, ptr %6, align 8
  %79 = load i32, ptr %12, align 4
  %80 = call ptr @proto_tree_add_item(ptr noundef %76, i32 noundef %77, ptr noundef %78, i32 noundef %79, i32 noundef 1, i32 noundef 0)
  %81 = load i32, ptr %12, align 4
  %82 = add i32 %81, 1
  store i32 %82, ptr %12, align 4
  %83 = load ptr, ptr %11, align 8
  %84 = load i32, ptr @hf_homepna_data, align 4
  %85 = load ptr, ptr %6, align 8
  %86 = load i32, ptr %12, align 4
  %87 = load i32, ptr %13, align 4
  %88 = sub i32 %87, 3
  %89 = call ptr @proto_tree_add_item(ptr noundef %83, i32 noundef %84, ptr noundef %85, i32 noundef %86, i32 noundef %88, i32 noundef 0)
  %90 = load i32, ptr %13, align 4
  %91 = sub i32 %90, 2
  %92 = load i32, ptr %12, align 4
  %93 = add i32 %92, %91
  store i32 %93, ptr %12, align 4
  %94 = load ptr, ptr %6, align 8
  %95 = load i32, ptr %12, align 4
  %96 = call zeroext i16 @tvb_get_ntohs(ptr noundef %94, i32 noundef %95)
  store i16 %96, ptr %15, align 2
  %97 = load ptr, ptr %11, align 8
  %98 = load i32, ptr @hf_homepna_etype, align 4
  %99 = load ptr, ptr %6, align 8
  %100 = load i32, ptr %12, align 4
  %101 = load i16, ptr %15, align 2
  %102 = zext i16 %101 to i32
  %103 = call ptr @proto_tree_add_uint(ptr noundef %97, i32 noundef %98, ptr noundef %99, i32 noundef %100, i32 noundef 2, i32 noundef %102)
  %104 = load i32, ptr %12, align 4
  %105 = add i32 %104, 2
  store i32 %105, ptr %12, align 4
  %106 = load i16, ptr %15, align 2
  %107 = zext i16 %106 to i32
  %108 = icmp eq i32 %107, 0
  br i1 %108, label %109, label %114

109:                                              ; preds = %75
  %110 = load ptr, ptr %10, align 8
  %111 = load i32, ptr %12, align 4
  call void @proto_item_set_len(ptr noundef %110, i32 noundef %111)
  %112 = load ptr, ptr %6, align 8
  %113 = load i32, ptr %12, align 4
  call void @set_actual_length(ptr noundef %112, i32 noundef %113)
  br label %129

114:                                              ; preds = %75
  %115 = load i16, ptr %15, align 2
  %116 = getelementptr inbounds nuw %struct.ethertype_data_s, ptr %16, i32 0, i32 0
  store i16 %115, ptr %116, align 8
  %117 = load i32, ptr %12, align 4
  %118 = getelementptr inbounds nuw %struct.ethertype_data_s, ptr %16, i32 0, i32 1
  store i32 %117, ptr %118, align 4
  %119 = load ptr, ptr %11, align 8
  %120 = getelementptr inbounds nuw %struct.ethertype_data_s, ptr %16, i32 0, i32 2
  store ptr %119, ptr %120, align 8
  %121 = load i32, ptr @hf_homepna_trailer, align 4
  %122 = getelementptr inbounds nuw %struct.ethertype_data_s, ptr %16, i32 0, i32 3
  store i32 %121, ptr %122, align 8
  %123 = getelementptr inbounds nuw %struct.ethertype_data_s, ptr %16, i32 0, i32 4
  store i32 0, ptr %123, align 4
  %124 = load ptr, ptr @ethertype_handle, align 8
  %125 = load ptr, ptr %6, align 8
  %126 = load ptr, ptr %7, align 8
  %127 = load ptr, ptr %8, align 8
  %128 = call i32 @call_dissector_with_data(ptr noundef %124, ptr noundef %125, ptr noundef %126, ptr noundef %127, ptr noundef %16)
  br label %129

129:                                              ; preds = %114, %109
  %130 = load ptr, ptr %6, align 8
  %131 = call i32 @tvb_captured_length(ptr noundef %130)
  store i32 %131, ptr %5, align 4
  store i32 1, ptr %17, align 4
  br label %132

132:                                              ; preds = %129, %21
  call void @llvm.lifetime.end.p0(i64 24, ptr %16) #3
  call void @llvm.lifetime.end.p0(i64 2, ptr %15) #3
  call void @llvm.lifetime.end.p0(i64 4, ptr %14) #3
  call void @llvm.lifetime.end.p0(i64 4, ptr %13) #3
  call void @llvm.lifetime.end.p0(i64 4, ptr %12) #3
  call void @llvm.lifetime.end.p0(i64 8, ptr %11) #3
  call void @llvm.lifetime.end.p0(i64 8, ptr %10) #3
  %133 = load i32, ptr %5, align 4
  ret i32 %133
}