; Function Attrs: null_pointer_is_valid sspstrong uwtable
define internal i32 @dissect_homepna(ptr noundef %0, ptr noundef %1, ptr noundef %2, ptr readnone captures(none) %3) #0 {
  %5 = alloca i32, align 4
  %6 = alloca %struct.ethertype_data_s, align 8
  call void @llvm.lifetime.start.p0(i64 4, ptr nonnull %5) #3
  call void @llvm.lifetime.start.p0(i64 24, ptr nonnull %6) #3
  %7 = tail call i32 @tvb_captured_length(ptr noundef %0)
  %8 = icmp ult i32 %7, 4
  br i1 %8, label %55, label %9

9:                                                ; preds = %4
  %10 = getelementptr inbounds nuw i8, ptr %1, i64 8
  %11 = load ptr, ptr %10, align 8
  tail call void @col_set_str(ptr noundef %11, i32 noundef 35, ptr noundef nonnull @.str.13)
  %12 = load ptr, ptr %10, align 8
  tail call void @col_clear(ptr noundef %12, i32 noundef 25)
  %13 = load i32, ptr @proto_homepna, align 4
  %14 = tail call ptr @proto_tree_add_item(ptr noundef %2, i32 noundef %13, ptr noundef %0, i32 noundef 0, i32 noundef -1, i32 noundef 0)
  %15 = load i32, ptr @ett_homepna, align 4
  %16 = tail call ptr @proto_item_add_subtree(ptr noundef %14, i32 noundef %15)
  %17 = tail call zeroext i8 @tvb_get_uint8(ptr noundef %0, i32 noundef 0)
  %18 = icmp sgt i8 %17, -1
  %19 = load i32, ptr @hf_homepna_type, align 4
  br i1 %18, label %20, label %24

20:                                               ; preds = %9
  %21 = tail call ptr @proto_tree_add_item(ptr noundef %16, i32 noundef %19, ptr noundef %0, i32 noundef 0, i32 noundef 1, i32 noundef 0)
  %22 = load i32, ptr @hf_homepna_length, align 4
  %23 = call ptr @proto_tree_add_item_ret_uint(ptr noundef %16, i32 noundef %22, ptr noundef %0, i32 noundef 1, i32 noundef 1, i32 noundef 0, ptr noundef nonnull %5)
  br label %28

24:                                               ; preds = %9
  %25 = tail call ptr @proto_tree_add_item(ptr noundef %16, i32 noundef %19, ptr noundef %0, i32 noundef 0, i32 noundef 2, i32 noundef 0)
  %26 = load i32, ptr @hf_homepna_length, align 4
  %27 = call ptr @proto_tree_add_item_ret_uint(ptr noundef %16, i32 noundef %26, ptr noundef %0, i32 noundef 2, i32 noundef 2, i32 noundef 0, ptr noundef nonnull %5)
  br label %28

28:                                               ; preds = %24, %20
  %.053 = phi i32 [ 2, %20 ], [ 4, %24 ]
  %29 = load i32, ptr @hf_homepna_version, align 4
  %30 = call ptr @proto_tree_add_item(ptr noundef %16, i32 noundef %29, ptr noundef %0, i32 noundef %.053, i32 noundef 1, i32 noundef 0)
  %31 = or disjoint i32 %.053, 1
  %32 = load i32, ptr @hf_homepna_data, align 4
  %33 = load i32, ptr %5, align 4
  %34 = add i32 %33, -3
  %35 = call ptr @proto_tree_add_item(ptr noundef %16, i32 noundef %32, ptr noundef %0, i32 noundef %31, i32 noundef %34, i32 noundef 0)
  %36 = load i32, ptr %5, align 4
  %37 = add i32 %36, %31
  %38 = add i32 %37, -2
  %39 = call zeroext i16 @tvb_get_ntohs(ptr noundef %0, i32 noundef %38)
  %40 = load i32, ptr @hf_homepna_etype, align 4
  %41 = zext i16 %39 to i32
  %42 = call ptr @proto_tree_add_uint(ptr noundef %16, i32 noundef %40, ptr noundef %0, i32 noundef %38, i32 noundef 2, i32 noundef %41)
  %43 = icmp eq i16 %39, 0
  br i1 %43, label %44, label %45

44:                                               ; preds = %28
  call void @proto_item_set_len(ptr noundef %14, i32 noundef %37)
  call void @set_actual_length(ptr noundef %0, i32 noundef %37)
  br label %53

45:                                               ; preds = %28
  store i16 %39, ptr %6, align 8
  %46 = getelementptr inbounds nuw i8, ptr %6, i64 4
  store i32 %37, ptr %46, align 4
  %47 = getelementptr inbounds nuw i8, ptr %6, i64 8
  store ptr %16, ptr %47, align 8
  %48 = load i32, ptr @hf_homepna_trailer, align 4
  %49 = getelementptr inbounds nuw i8, ptr %6, i64 16
  store i32 %48, ptr %49, align 8
  %50 = getelementptr inbounds nuw i8, ptr %6, i64 20
  store i32 0, ptr %50, align 4
  %51 = load ptr, ptr @ethertype_handle, align 8
  %52 = call i32 @call_dissector_with_data(ptr noundef %51, ptr noundef %0, ptr noundef %1, ptr noundef %2, ptr noundef nonnull %6)
  br label %53

53:                                               ; preds = %45, %44
  %54 = call i32 @tvb_captured_length(ptr noundef %0)
  br label %55

55:                                               ; preds = %4, %53
  %.0 = phi i32 [ %54, %53 ], [ 0, %4 ]
  call void @llvm.lifetime.end.p0(i64 24, ptr nonnull %6) #3
  call void @llvm.lifetime.end.p0(i64 4, ptr nonnull %5) #3
  ret i32 %.0
}